; Function Attrs: mustprogress nounwind uwtable
define hidden void @_ZN16ArenaStatCounter20update_c2_node_countEv(ptr nocapture noundef nonnull writeonly align 8 dereferenceable(76) %0) local_unnamed_addr #3 align 2 {
  %2 = tail call align 8 ptr @llvm.threadlocal.address.p0(ptr align 8 @_ZN6Thread12_thr_currentE)
  %3 = load ptr, ptr %2, align 8
  %4 = getelementptr inbounds i8, ptr %3, i64 1824
  %5 = load volatile ptr, ptr %4, align 8
  %.not = icmp eq ptr %5, null
  br i1 %.not, label %28, label %6

6:                                                ; preds = %1
  %7 = load volatile ptr, ptr %4, align 8
  %8 = tail call noundef ptr @_ZNK11CompileTask8compilerEv(ptr noundef nonnull align 8 dereferenceable(176) %7) #14
  %.not7 = icmp eq ptr %8, null
  br i1 %.not7, label %28, label %9

9:                                                ; preds = %6
  %10 = load volatile ptr, ptr %4, align 8
  %11 = tail call noundef ptr @_ZNK11CompileTask8compilerEv(ptr noundef nonnull align 8 dereferenceable(176) %10) #14
  %12 = getelementptr inbounds i8, ptr %11, i64 16
  %13 = load i8, ptr %12, align 8
  %14 = icmp eq i8 %13, 2
  br i1 %14, label %15, label %28

15:                                               ; preds = %9
  %16 = load ptr, ptr %2, align 8
  %17 = getelementptr inbounds i8, ptr %16, i64 1808
  %18 = load ptr, ptr %17, align 8
  %19 = getelementptr inbounds i8, ptr %18, i64 128
  %20 = load ptr, ptr %19, align 8
  %.not8 = icmp eq ptr %20, null
  br i1 %.not8, label %28, label %21

21:                                               ; preds = %15
  %22 = getelementptr inbounds i8, ptr %20, i64 592
  %23 = load i32, ptr %22, align 8
  %24 = getelementptr inbounds i8, ptr %20, i64 596
  %25 = load i32, ptr %24, align 4
  %26 = sub i32 %23, %25
  %27 = getelementptr inbounds i8, ptr %0, i64 72
  store i32 %26, ptr %27, align 8
  br label %28

28:                                               ; preds = %15, %21, %9, %6, %1
  ret void
}